; Function Attrs: mustprogress uwtable
define void @_ZNK11OpenImageIO6v3_1_011ColorConfig15getDisplayNamesB5cxx11Ev(ptr dead_on_unwind noalias writable sret(%"class.std::vector.34") align 8 initializes((0, 24)) %0, ptr noundef nonnull readonly align 8 captures(none) dereferenceable(8) %1) local_unnamed_addr #5 align 2 personality ptr @__gxx_personality_v0 {
  %3 = alloca ptr, align 8
  tail call void @llvm.memset.p0.i64(ptr noundef nonnull align 8 dereferenceable(24) %0, i8 0, i64 24, i1 false)
  %4 = load ptr, ptr %1, align 8, !tbaa !140
  %5 = load ptr, ptr %4, align 8, !tbaa !30
  %6 = icmp ne ptr %5, null
  %7 = load i32, ptr @_ZN11OpenImageIO6v3_1_0L12disable_ocioE, align 4
  %8 = icmp eq i32 %7, 0
  %or.cond.not.i = select i1 %6, i1 %8, i1 false
  br i1 %or.cond.not.i, label %9, label %._crit_edge

9:                                                ; preds = %2
  %10 = invoke noundef i32 @_ZNK16OpenColorIO_v2_46Config14getNumDisplaysEv(ptr noundef nonnull align 8 dereferenceable(8) %5)
          to label %_ZNK11OpenImageIO6v3_1_011ColorConfig14getNumDisplaysEv.exit unwind label %11

_ZNK11OpenImageIO6v3_1_011ColorConfig14getNumDisplaysEv.exit: ; preds = %9
  %.not13 = icmp eq i32 %10, 0
  br i1 %.not13, label %._crit_edge, label %.lr.ph

11:                                               ; preds = %9
  %12 = landingpad { ptr, i32 }
          cleanup
  br label %25

.lr.ph:                                           ; preds = %_ZNK11OpenImageIO6v3_1_011ColorConfig14getNumDisplaysEv.exit, %21
  %.0814 = phi i32 [ %22, %21 ], [ 0, %_ZNK11OpenImageIO6v3_1_011ColorConfig14getNumDisplaysEv.exit ]
  call void @llvm.lifetime.start.p0(i64 8, ptr nonnull %3) #34
  %13 = load ptr, ptr %1, align 8, !tbaa !140
  %14 = load ptr, ptr %13, align 8, !tbaa !30
  %15 = icmp ne ptr %14, null
  %16 = load i32, ptr @_ZN11OpenImageIO6v3_1_0L12disable_ocioE, align 4
  %17 = icmp eq i32 %16, 0
  %or.cond.not.i10 = select i1 %15, i1 %17, i1 false
  br i1 %or.cond.not.i10, label %18, label %_ZNK11OpenImageIO6v3_1_011ColorConfig21getDisplayNameByIndexEi.exit

18:                                               ; preds = %.lr.ph
  %19 = invoke noundef ptr @_ZNK16OpenColorIO_v2_46Config10getDisplayEi(ptr noundef nonnull align 8 dereferenceable(8) %14, i32 noundef %.0814)
          to label %_ZNK11OpenImageIO6v3_1_011ColorConfig21getDisplayNameByIndexEi.exit unwind label %23

_ZNK11OpenImageIO6v3_1_011ColorConfig21getDisplayNameByIndexEi.exit: ; preds = %.lr.ph, %18
  %.0.i11 = phi ptr [ null, %.lr.ph ], [ %19, %18 ]
  store ptr %.0.i11, ptr %3, align 8, !tbaa !106
  %20 = invoke noundef nonnull align 8 dereferenceable(32) ptr @_ZNSt6vectorINSt7__cxx1112basic_stringIcSt11char_traitsIcESaIcEEESaIS5_EE12emplace_backIJPKcEEERS5_DpOT_(ptr noundef nonnull align 8 dereferenceable(24) %0, ptr noundef nonnull align 8 dereferenceable(8) %3)
          to label %21 unwind label %23

21:                                               ; preds = %_ZNK11OpenImageIO6v3_1_011ColorConfig21getDisplayNameByIndexEi.exit
  call void @llvm.lifetime.end.p0(i64 8, ptr nonnull %3) #34
  %22 = add nuw nsw i32 %.0814, 1
  %.not = icmp eq i32 %22, %10
  br i1 %.not, label %._crit_edge, label %.lr.ph, !llvm.loop !209

23:                                               ; preds = %18, %_ZNK11OpenImageIO6v3_1_011ColorConfig21getDisplayNameByIndexEi.exit
  %24 = landingpad { ptr, i32 }
          cleanup
  call void @llvm.lifetime.end.p0(i64 8, ptr nonnull %3) #34
  br label %25

25:                                               ; preds = %23, %11
  %.pn = phi { ptr, i32 } [ %24, %23 ], [ %12, %11 ]
  call void @_ZNSt6vectorINSt7__cxx1112basic_stringIcSt11char_traitsIcESaIcEEESaIS5_EED2Ev(ptr noundef nonnull align 8 dereferenceable(24) %0) #34
  resume { ptr, i32 } %.pn

._crit_edge:                                      ; preds = %21, %2, %_ZNK11OpenImageIO6v3_1_011ColorConfig14getNumDisplaysEv.exit
  ret void
}